; Function Attrs: mustprogress uwtable
define noalias noundef nonnull ptr @lean_io_prim_handle_read(ptr noundef readonly captures(none) %0, i64 noundef %1, ptr noundef readnone captures(none) %2) local_unnamed_addr #0 {
  %4 = getelementptr i8, ptr %0, i64 16
  %.val = load ptr, ptr %4, align 8, !tbaa !39
  %5 = add i64 %1, 24
  %6 = tail call ptr @lean_alloc_object(i64 noundef %5)
  store i32 1, ptr %6, align 4, !tbaa !7
  %7 = getelementptr inbounds nuw i8, ptr %6, i64 4
  %8 = load i32, ptr %7, align 4
  %9 = and i32 %8, 65535
  %10 = or disjoint i32 %9, -134152192
  store i32 %10, ptr %7, align 4
  %11 = getelementptr inbounds nuw i8, ptr %6, i64 8
  store i64 0, ptr %11, align 8, !tbaa !45
  %12 = getelementptr inbounds nuw i8, ptr %6, i64 16
  store i64 %1, ptr %12, align 8, !tbaa !45
  %13 = getelementptr inbounds nuw i8, ptr %6, i64 24
  %14 = tail call i64 @fread(ptr noundef nonnull %13, i64 noundef 1, i64 noundef %1, ptr noundef %.val)
  %.not = icmp eq i64 %14, 0
  br i1 %.not, label %19, label %15

15:                                               ; preds = %3
  store i64 %14, ptr %11, align 8, !tbaa !45
  tail call void @lean_inc_heartbeat()
  %16 = tail call noalias ptr @mi_malloc_small(i64 noundef 24) #27
  %17 = icmp eq ptr %16, null
  br i1 %17, label %18, label %_ZN4lean15io_result_mk_okEP11lean_object.exit

18:                                               ; preds = %15
  tail call void @lean_internal_panic_out_of_memory() #28
  unreachable

19:                                               ; preds = %3
  %20 = tail call i32 @feof(ptr noundef %.val) #27
  %.not16 = icmp eq i32 %20, 0
  br i1 %.not16, label %25, label %21

21:                                               ; preds = %19
  tail call void @clearerr(ptr noundef %.val) #27
  store i64 0, ptr %11, align 8, !tbaa !45
  tail call void @lean_inc_heartbeat()
  %22 = tail call noalias ptr @mi_malloc_small(i64 noundef 24) #27
  %23 = icmp eq ptr %22, null
  br i1 %23, label %24, label %_ZN4lean15io_result_mk_okEP11lean_object.exit

24:                                               ; preds = %21
  tail call void @lean_internal_panic_out_of_memory() #28
  unreachable

25:                                               ; preds = %19
  %26 = load i32, ptr %6, align 4, !tbaa !7
  %27 = icmp sgt i32 %26, 1
  br i1 %27, label %28, label %30, !prof !10

28:                                               ; preds = %25
  %29 = add nsw i32 %26, -1
  store i32 %29, ptr %6, align 4, !tbaa !7
  br label %_ZN4lean7dec_refEP11lean_object.exit

30:                                               ; preds = %25
  %.not.i.i = icmp eq i32 %26, 0
  br i1 %.not.i.i, label %_ZN4lean7dec_refEP11lean_object.exit, label %31

31:                                               ; preds = %30
  tail call void @lean_dec_ref_cold(ptr noundef nonnull %6)
  br label %_ZN4lean7dec_refEP11lean_object.exit

_ZN4lean7dec_refEP11lean_object.exit:             ; preds = %28, %30, %31
  %32 = tail call ptr @__errno_location() #30
  %33 = load i32, ptr %32, align 4, !tbaa !44
  %34 = tail call noundef ptr @lean_decode_io_error(i32 noundef %33, ptr noundef null)
  tail call void @lean_inc_heartbeat()
  %35 = tail call noalias ptr @mi_malloc_small(i64 noundef 24) #27
  %36 = icmp eq ptr %35, null
  br i1 %36, label %37, label %_ZN4lean15io_result_mk_okEP11lean_object.exit

37:                                               ; preds = %_ZN4lean7dec_refEP11lean_object.exit
  tail call void @lean_internal_panic_out_of_memory() #28
  unreachable

_ZN4lean15io_result_mk_okEP11lean_object.exit:    ; preds = %_ZN4lean7dec_refEP11lean_object.exit, %21, %15
  %.sink24 = phi ptr [ %16, %15 ], [ %22, %21 ], [ %35, %_ZN4lean7dec_refEP11lean_object.exit ]
  %.sink21 = phi i32 [ 131096, %15 ], [ 131096, %21 ], [ 16908312, %_ZN4lean7dec_refEP11lean_object.exit ]
  %.sink = phi ptr [ %6, %15 ], [ %6, %21 ], [ %34, %_ZN4lean7dec_refEP11lean_object.exit ]
  %38 = getelementptr inbounds nuw i8, ptr %.sink24, i64 4
  store i32 1, ptr %.sink24, align 4, !tbaa !7
  store i32 %.sink21, ptr %38, align 4
  %39 = getelementptr inbounds nuw i8, ptr %.sink24, i64 8
  store ptr %.sink, ptr %39, align 8, !tbaa !3
  %40 = getelementptr inbounds nuw i8, ptr %.sink24, i64 16
  store ptr inttoptr (i64 1 to ptr), ptr %40, align 8, !tbaa !3
  ret ptr %.sink24
}